; Function Attrs: nounwind sspstrong uwtable
define dso_local i64 @rb_float_new(double noundef %0) local_unnamed_addr #2 {
  %2 = bitcast double %0 to i64
  %cond.i = icmp eq i64 %2, 3458764513820540928
  br i1 %cond.i, label %14, label %3

3:                                                ; preds = %1
  %4 = lshr i64 %2, 60
  %5 = trunc nuw nsw i64 %4 to i32
  %6 = and i32 %5, 7
  %7 = add nsw i32 %6, -3
  %.not7.i = icmp ult i32 %7, 2
  br i1 %.not7.i, label %8, label %12

8:                                                ; preds = %3
  %9 = tail call noundef i64 @llvm.fshl.i64(i64 range(i64 3458764513820540929, 3458764513820540928) %2, i64 range(i64 3458764513820540929, 3458764513820540928) %2, i64 3)
  %10 = and i64 %9, -4
  %11 = or disjoint i64 %10, 2
  br label %rb_float_new_inline.exit

12:                                               ; preds = %3
  %13 = icmp eq i64 %2, 0
  br i1 %13, label %rb_float_new_inline.exit, label %14

14:                                               ; preds = %12, %1
  %15 = tail call align 8 ptr @llvm.threadlocal.address.p0(ptr align 8 @ruby_current_ec)
  %16 = load ptr, ptr %15, align 8, !tbaa !21
  %17 = load i64, ptr @rb_cFloat, align 8, !tbaa !7
  %18 = tail call i64 @rb_wb_protected_newobj_of(ptr noundef %16, i64 noundef %17, i64 noundef 4, i64 noundef 24) #26
  %19 = inttoptr i64 %18 to ptr
  %20 = getelementptr inbounds nuw i8, ptr %19, i64 16
  store double %0, ptr %20, align 8, !tbaa !24
  tail call void @rb_obj_freeze_inline(i64 noundef %18) #26
  br label %rb_float_new_inline.exit

rb_float_new_inline.exit:                         ; preds = %8, %12, %14
  %.0.i = phi i64 [ %18, %14 ], [ %11, %8 ], [ -9223372036854775806, %12 ]
  ret i64 %.0.i
}